; Function Attrs: nounwind uwtable
define hidden i32 @exr_attr_float_vector_create(ptr noundef %0, ptr noundef %1, ptr noundef readonly %2, i32 noundef %3) local_unnamed_addr #0 {
  %.not = icmp eq ptr %0, null
  br i1 %.not, label %exr_attr_float_vector_init.exit.thread, label %5

5:                                                ; preds = %4
  %6 = icmp ne ptr %1, null
  %7 = icmp ne ptr %2, null
  %or.cond = and i1 %6, %7
  br i1 %or.cond, label %12, label %8

8:                                                ; preds = %5
  %9 = getelementptr inbounds nuw i8, ptr %0, i64 64
  %10 = load ptr, ptr %9, align 8, !tbaa !3
  %11 = tail call i32 %10(ptr noundef nonnull %0, i32 noundef 3, ptr noundef nonnull @.str.4) #3
  br label %exr_attr_float_vector_init.exit.thread

12:                                               ; preds = %5
  %13 = sext i32 %3 to i64
  %14 = shl nsw i64 %13, 2
  tail call void @llvm.memset.p0.i64(ptr noundef nonnull align 8 dereferenceable(16) %1, i8 0, i64 16, i1 false)
  %15 = icmp slt i32 %3, 0
  br i1 %15, label %16, label %20

16:                                               ; preds = %12
  %17 = getelementptr inbounds nuw i8, ptr %0, i64 72
  %18 = load ptr, ptr %17, align 8, !tbaa !22
  %19 = tail call i32 (ptr, i32, ptr, ...) %18(ptr noundef nonnull %0, i32 noundef 3, ptr noundef nonnull @.str.1, i32 noundef %3) #3
  br label %exr_attr_float_vector_init.exit.thread

20:                                               ; preds = %12
  %21 = icmp ugt i64 %14, 2147483647
  br i1 %21, label %22, label %26

22:                                               ; preds = %20
  %23 = getelementptr inbounds nuw i8, ptr %0, i64 72
  %24 = load ptr, ptr %23, align 8, !tbaa !22
  %25 = tail call i32 (ptr, i32, ptr, ...) %24(ptr noundef nonnull %0, i32 noundef 3, ptr noundef nonnull @.str.2, i32 noundef %3) #3
  br label %exr_attr_float_vector_init.exit

26:                                               ; preds = %20
  %.not30.i = icmp eq i32 %3, 0
  br i1 %.not30.i, label %exr_attr_float_vector_init.exit.thread, label %27

27:                                               ; preds = %26
  %28 = getelementptr inbounds nuw i8, ptr %0, i64 88
  %29 = load ptr, ptr %28, align 8, !tbaa !23
  %30 = tail call ptr %29(i64 noundef %14) #3
  %31 = getelementptr inbounds nuw i8, ptr %1, i64 8
  store ptr %30, ptr %31, align 8, !tbaa !24
  %32 = icmp eq ptr %30, null
  br i1 %32, label %33, label %37

33:                                               ; preds = %27
  %34 = getelementptr inbounds nuw i8, ptr %0, i64 56
  %35 = load ptr, ptr %34, align 8, !tbaa !27
  %36 = tail call i32 %35(ptr noundef nonnull %0, i32 noundef 1) #3
  br label %exr_attr_float_vector_init.exit

37:                                               ; preds = %27
  store i32 %3, ptr %1, align 8, !tbaa !28
  %38 = getelementptr inbounds nuw i8, ptr %1, i64 4
  store i32 %3, ptr %38, align 4, !tbaa !29
  br label %exr_attr_float_vector_init.exit

exr_attr_float_vector_init.exit:                  ; preds = %22, %33, %37
  %.0.i = phi i32 [ %25, %22 ], [ %36, %33 ], [ 0, %37 ]
  %39 = icmp eq i32 %.0.i, 0
  %40 = add nsw i32 %3, -1
  %41 = icmp ult i32 %40, 536870911
  %or.cond25 = and i1 %41, %39
  br i1 %or.cond25, label %42, label %exr_attr_float_vector_init.exit.thread

42:                                               ; preds = %exr_attr_float_vector_init.exit
  %43 = shl nuw nsw i32 %3, 2
  %44 = zext nneg i32 %43 to i64
  %45 = getelementptr inbounds nuw i8, ptr %1, i64 8
  %46 = load ptr, ptr %45, align 8, !tbaa !24
  tail call void @llvm.memcpy.p0.p0.i64(ptr align 4 %46, ptr nonnull align 4 %2, i64 %44, i1 false)
  br label %exr_attr_float_vector_init.exit.thread

exr_attr_float_vector_init.exit.thread:           ; preds = %26, %16, %exr_attr_float_vector_init.exit, %42, %4, %8
  %.0 = phi i32 [ %11, %8 ], [ 2, %4 ], [ 0, %42 ], [ %.0.i, %exr_attr_float_vector_init.exit ], [ 0, %26 ], [ %19, %16 ]
  ret i32 %.0
}